; Function Attrs: mustprogress nofree norecurse nosync nounwind willreturn memory(argmem: read) uwtable
define i32 @png_get_x_pixels_per_meter(ptr noalias noundef readnone %0, ptr noalias noundef readonly %1) local_unnamed_addr #0 {
  %3 = icmp ne ptr %0, null
  %4 = icmp ne ptr %1, null
  %or.cond = and i1 %3, %4
  br i1 %or.cond, label %5, label %16

5:                                                ; preds = %2
  %6 = getelementptr inbounds i8, ptr %1, i64 8
  %7 = load i32, ptr %6, align 8
  %8 = and i32 %7, 128
  %.not = icmp eq i32 %8, 0
  br i1 %.not, label %16, label %9

9:                                                ; preds = %5
  %10 = getelementptr inbounds i8, ptr %1, i64 232
  %11 = load i8, ptr %10, align 8
  %12 = icmp eq i8 %11, 1
  br i1 %12, label %13, label %16

13:                                               ; preds = %9
  %14 = getelementptr inbounds i8, ptr %1, i64 224
  %15 = load i32, ptr %14, align 8
  br label %16

16:                                               ; preds = %2, %5, %9, %13
  %.0 = phi i32 [ %15, %13 ], [ 0, %9 ], [ 0, %5 ], [ 0, %2 ]
  ret i32 %.0
}